target datalayout = "e-m:e-p270:32:32-p271:32:32-p272:64:64-i64:64-i128:128-f80:128-n8:16:32:64-S128"
target triple = "x86_64-pc-linux-gnu"

%struct._packet_info = type { ptr, ptr, i32, i32, %struct.nstime_t, %struct.nstime_t, %struct.nstime_t, i8, ptr, ptr, ptr, ptr, %struct._address, %struct._address, %struct._address, %struct._address, %struct._address, %struct._address, i32, ptr, i8, [3 x i8], %struct.anon, i32, i32, i32, i32, ptr, i8, ptr, ptr, i16, i16, i32, i32, i16, i32, i32, ptr, ptr, ptr, i8, i8, i16, i16, i16, i32, i16, i16, ptr, ptr, ptr, ptr, ptr, i32, i32 }
%struct.nstime_t = type { i64, i32 }
%struct._address = type { i32, i32, ptr, ptr }
%struct.anon = type { i8, [3 x i8] }

@.str.169 = private unnamed_addr constant [3 x i8] c"%s\00", align 1
@.str.174 = private unnamed_addr constant [24 x i8] c"[OpcUa Null ByteString]\00", align 1
@.str.175 = private unnamed_addr constant [25 x i8] c"[OpcUa Empty ByteString]\00", align 1
@.str.176 = private unnamed_addr constant [40 x i8] c"[Invalid ByteString] Invalid length: %d\00", align 1

; Function Attrs: null_pointer_is_valid sspstrong uwtable
define hidden ptr @parseByteString(ptr noundef %0, ptr noundef %1, ptr noundef %2, ptr noundef %3, i32 noundef %4) #0 {
  %6 = alloca ptr, align 8
  %7 = alloca ptr, align 8
  %8 = alloca ptr, align 8
  %9 = alloca ptr, align 8
  %10 = alloca i32, align 4
  %11 = alloca ptr, align 8
  %12 = alloca ptr, align 8
  %13 = alloca i32, align 4
  %14 = alloca i32, align 4
  store ptr %0, ptr %6, align 8
  store ptr %1, ptr %7, align 8
  store ptr %2, ptr %8, align 8
  store ptr %3, ptr %9, align 8
  store i32 %4, ptr %10, align 4
  call void @llvm.lifetime.start.p0(i64 8, ptr %11) #3
  store ptr null, ptr %11, align 8
  call void @llvm.lifetime.start.p0(i64 8, ptr %12) #3
  call void @llvm.lifetime.start.p0(i64 4, ptr %13) #3
  %15 = load ptr, ptr %9, align 8
  %16 = load i32, ptr %15, align 4
  store i32 %16, ptr %13, align 4
  call void @llvm.lifetime.start.p0(i64 4, ptr %14) #3
  %17 = load ptr, ptr %7, align 8
  %18 = load i32, ptr %13, align 4
  %19 = call i32 @tvb_get_letohl(ptr noundef %17, i32 noundef %18)
  store i32 %19, ptr %14, align 4
  %20 = load i32, ptr %13, align 4
  %21 = add i32 %20, 4
  store i32 %21, ptr %13, align 4
  %22 = load i32, ptr %14, align 4
  %23 = icmp eq i32 %22, -1
  br i1 %23, label %24, label %37

24:                                               ; preds = %5
  %25 = load ptr, ptr %6, align 8
  %26 = load i32, ptr %10, align 4
  %27 = load ptr, ptr %7, align 8
  %28 = load ptr, ptr %9, align 8
  %29 = load i32, ptr %28, align 4
  %30 = call ptr @proto_tree_add_item(ptr noundef %25, i32 noundef %26, ptr noundef %27, i32 noundef %29, i32 noundef 0, i32 noundef 0)
  store ptr %30, ptr %11, align 8
  %31 = load ptr, ptr %11, align 8
  call void (ptr, ptr, ...) @proto_item_append_text(ptr noundef %31, ptr noundef @.str.174)
  %32 = load ptr, ptr %11, align 8
  %33 = load ptr, ptr %7, align 8
  %34 = load ptr, ptr %9, align 8
  %35 = load i32, ptr %34, align 4
  %36 = add i32 %35, 4
  call void @proto_item_set_end(ptr noundef %32, ptr noundef %33, i32 noundef %36)
  br label %87

37:                                               ; preds = %5
  %38 = load i32, ptr %14, align 4
  %39 = icmp eq i32 %38, 0
  br i1 %39, label %40, label %53

40:                                               ; preds = %37
  %41 = load ptr, ptr %6, align 8
  %42 = load i32, ptr %10, align 4
  %43 = load ptr, ptr %7, align 8
  %44 = load ptr, ptr %9, align 8
  %45 = load i32, ptr %44, align 4
  %46 = call ptr @proto_tree_add_item(ptr noundef %41, i32 noundef %42, ptr noundef %43, i32 noundef %45, i32 noundef 0, i32 noundef 0)
  store ptr %46, ptr %11, align 8
  %47 = load ptr, ptr %11, align 8
  call void (ptr, ptr, ...) @proto_item_append_text(ptr noundef %47, ptr noundef @.str.175)
  %48 = load ptr, ptr %11, align 8
  %49 = load ptr, ptr %7, align 8
  %50 = load ptr, ptr %9, align 8
  %51 = load i32, ptr %50, align 4
  %52 = add i32 %51, 4
  call void @proto_item_set_end(ptr noundef %48, ptr noundef %49, i32 noundef %52)
  br label %86

53:                                               ; preds = %37
  %54 = load i32, ptr %14, align 4
  %55 = icmp sgt i32 %54, 0
  br i1 %55, label %56, label %66

56:                                               ; preds = %53
  %57 = load ptr, ptr %6, align 8
  %58 = load i32, ptr %10, align 4
  %59 = load ptr, ptr %7, align 8
  %60 = load i32, ptr %13, align 4
  %61 = load i32, ptr %14, align 4
  %62 = call ptr @proto_tree_add_item(ptr noundef %57, i32 noundef %58, ptr noundef %59, i32 noundef %60, i32 noundef %61, i32 noundef 0)
  store ptr %62, ptr %11, align 8
  %63 = load i32, ptr %14, align 4
  %64 = load i32, ptr %13, align 4
  %65 = add i32 %64, %63
  store i32 %65, ptr %13, align 4
  br label %85

66:                                               ; preds = %53
  %67 = load ptr, ptr %6, align 8
  %68 = load i32, ptr %10, align 4
  %69 = load ptr, ptr %7, align 8
  %70 = load ptr, ptr %9, align 8
  %71 = load i32, ptr %70, align 4
  %72 = call ptr @proto_tree_add_item(ptr noundef %67, i32 noundef %68, ptr noundef %69, i32 noundef %71, i32 noundef 0, i32 noundef 0)
  store ptr %72, ptr %11, align 8
  %73 = load ptr, ptr %8, align 8
  %74 = getelementptr inbounds nuw %struct._packet_info, ptr %73, i32 0, i32 51
  %75 = load ptr, ptr %74, align 8
  %76 = load i32, ptr %14, align 4
  %77 = call noalias ptr (ptr, ptr, ...) @wmem_strdup_printf(ptr noundef %75, ptr noundef @.str.176, i32 noundef %76)
  store ptr %77, ptr %12, align 8
  %78 = load ptr, ptr %11, align 8
  %79 = load ptr, ptr %12, align 8
  call void (ptr, ptr, ...) @proto_item_append_text(ptr noundef %78, ptr noundef @.str.169, ptr noundef %79)
  %80 = load ptr, ptr %11, align 8
  %81 = load ptr, ptr %7, align 8
  %82 = load ptr, ptr %9, align 8
  %83 = load i32, ptr %82, align 4
  %84 = add i32 %83, 4
  call void @proto_item_set_end(ptr noundef %80, ptr noundef %81, i32 noundef %84)
  br label %85

85:                                               ; preds = %66, %56
  br label %86

86:                                               ; preds = %85, %40
  br label %87

87:                                               ; preds = %86, %24
  %88 = load i32, ptr %13, align 4
  %89 = load ptr, ptr %9, align 8
  store i32 %88, ptr %89, align 4
  %90 = load ptr, ptr %11, align 8
  call void @llvm.lifetime.end.p0(i64 4, ptr %14) #3
  call void @llvm.lifetime.end.p0(i64 4, ptr %13) #3
  call void @llvm.lifetime.end.p0(i64 8, ptr %12) #3
  call void @llvm.lifetime.end.p0(i64 8, ptr %11) #3
  ret ptr %90
}