; Function Attrs: null_pointer_is_valid sspstrong uwtable
define hidden ptr @parseByteString(ptr noundef %0, ptr noundef %1, ptr noundef readonly captures(none) %2, ptr noundef captures(none) %3, i32 noundef %4) #0 {
  %6 = load i32, ptr %3, align 4
  %7 = tail call i32 @tvb_get_letohl(ptr noundef %1, i32 noundef %6)
  %8 = add i32 %6, 4
  switch i32 %7, label %19 [
    i32 -1, label %9
    i32 0, label %14
  ]

9:                                                ; preds = %5
  %10 = load i32, ptr %3, align 4
  %11 = tail call ptr @proto_tree_add_item(ptr noundef %0, i32 noundef %4, ptr noundef %1, i32 noundef %10, i32 noundef 0, i32 noundef 0)
  tail call void (ptr, ptr, ...) @proto_item_append_text(ptr noundef %11, ptr noundef nonnull @.str.174)
  %12 = load i32, ptr %3, align 4
  %13 = add i32 %12, 4
  tail call void @proto_item_set_end(ptr noundef %11, ptr noundef %1, i32 noundef %13)
  br label %32

14:                                               ; preds = %5
  %15 = load i32, ptr %3, align 4
  %16 = tail call ptr @proto_tree_add_item(ptr noundef %0, i32 noundef %4, ptr noundef %1, i32 noundef %15, i32 noundef 0, i32 noundef 0)
  tail call void (ptr, ptr, ...) @proto_item_append_text(ptr noundef %16, ptr noundef nonnull @.str.175)
  %17 = load i32, ptr %3, align 4
  %18 = add i32 %17, 4
  tail call void @proto_item_set_end(ptr noundef %16, ptr noundef %1, i32 noundef %18)
  br label %32

19:                                               ; preds = %5
  %20 = icmp sgt i32 %7, 0
  br i1 %20, label %21, label %24

21:                                               ; preds = %19
  %22 = tail call ptr @proto_tree_add_item(ptr noundef %0, i32 noundef %4, ptr noundef %1, i32 noundef %8, i32 noundef %7, i32 noundef 0)
  %23 = add i32 %8, %7
  br label %32

24:                                               ; preds = %19
  %25 = load i32, ptr %3, align 4
  %26 = tail call ptr @proto_tree_add_item(ptr noundef %0, i32 noundef %4, ptr noundef %1, i32 noundef %25, i32 noundef 0, i32 noundef 0)
  %27 = getelementptr inbounds nuw i8, ptr %2, i64 408
  %28 = load ptr, ptr %27, align 8
  %29 = tail call noalias ptr (ptr, ptr, ...) @wmem_strdup_printf(ptr noundef %28, ptr noundef nonnull @.str.176, i32 noundef %7)
  tail call void (ptr, ptr, ...) @proto_item_append_text(ptr noundef %26, ptr noundef nonnull @.str.169, ptr noundef %29)
  %30 = load i32, ptr %3, align 4
  %31 = add i32 %30, 4
  tail call void @proto_item_set_end(ptr noundef %26, ptr noundef %1, i32 noundef %31)
  br label %32

32:                                               ; preds = %14, %24, %21, %9
  %.043 = phi i32 [ %8, %9 ], [ %8, %14 ], [ %23, %21 ], [ %8, %24 ]
  %.0 = phi ptr [ %11, %9 ], [ %16, %14 ], [ %22, %21 ], [ %26, %24 ]
  store i32 %.043, ptr %3, align 4
  ret ptr %.0
}